target datalayout = "e-m:e-p270:32:32-p271:32:32-p272:64:64-i64:64-i128:128-f80:128-n8:16:32:64-S128"
target triple = "x86_64-pc-linux-gnu"

%"struct.Luau::NotNull" = type { ptr }
%"struct.Luau::Json::ObjectEmitter" = type <{ %"struct.Luau::NotNull", i8, i8, [6 x i8] }>
%"struct.Luau::Json::JsonEmitter" = type { i8, %"class.std::vector" }
%"class.std::vector" = type { %"struct.std::_Vector_base" }
%"struct.std::_Vector_base" = type { %"struct.std::_Vector_base<std::__cxx11::basic_string<char>, std::allocator<std::__cxx11::basic_string<char>>>::_Vector_impl" }
%"struct.std::_Vector_base<std::__cxx11::basic_string<char>, std::allocator<std::__cxx11::basic_string<char>>>::_Vector_impl" = type { %"struct.std::_Vector_base<std::__cxx11::basic_string<char>, std::allocator<std::__cxx11::basic_string<char>>>::_Vector_impl_data" }
%"struct.std::_Vector_base<std::__cxx11::basic_string<char>, std::allocator<std::__cxx11::basic_string<char>>>::_Vector_impl_data" = type { ptr, ptr, ptr }
%"class.std::basic_string_view" = type { i64, ptr }

; Function Attrs: mustprogress nounwind uwtable
define linkonce_odr dso_local void @_ZNSt17basic_string_viewIcSt11char_traitsIcEEC2EPKcm(ptr noundef nonnull align 8 dereferenceable(16) %0, ptr noundef %1, i64 noundef %2) unnamed_addr #2 comdat align 2 {
  %4 = alloca ptr, align 8
  %5 = alloca ptr, align 8
  %6 = alloca i64, align 8
  store ptr %0, ptr %4, align 8, !tbaa !40
  store ptr %1, ptr %5, align 8, !tbaa !42
  store i64 %2, ptr %6, align 8, !tbaa !49
  %7 = load ptr, ptr %4, align 8
  %8 = getelementptr inbounds nuw %"class.std::basic_string_view", ptr %7, i32 0, i32 0
  %9 = load i64, ptr %6, align 8, !tbaa !49
  store i64 %9, ptr %8, align 8, !tbaa !44
  %10 = getelementptr inbounds nuw %"class.std::basic_string_view", ptr %7, i32 0, i32 1
  %11 = load ptr, ptr %5, align 8, !tbaa !42
  store ptr %11, ptr %10, align 8, !tbaa !47
  ret void
}

; Function Attrs: mustprogress uwtable
define dso_local void @_ZN4Luau4Json11JsonEmitter8writeRawEc(ptr noundef nonnull align 8 dereferenceable(32) %0, i8 noundef signext %1) #0 align 2 {
  %3 = alloca ptr, align 8
  %4 = alloca i8, align 1
  %5 = alloca %"class.std::basic_string_view", align 8
  store ptr %0, ptr %3, align 8, !tbaa !10
  store i8 %1, ptr %4, align 1, !tbaa !30
  %6 = load ptr, ptr %3, align 8
  call void @_ZNSt17basic_string_viewIcSt11char_traitsIcEEC2EPKcm(ptr noundef nonnull align 8 dereferenceable(16) %5, ptr noundef %4, i64 noundef 1) #16
  %7 = getelementptr inbounds nuw { i64, ptr }, ptr %5, i32 0, i32 0
  %8 = load i64, ptr %7, align 8
  %9 = getelementptr inbounds nuw { i64, ptr }, ptr %5, i32 0, i32 1
  %10 = load ptr, ptr %9, align 8
  call void @_ZN4Luau4Json11JsonEmitter8writeRawESt17basic_string_viewIcSt11char_traitsIcEE(ptr noundef nonnull align 8 dereferenceable(32) %6, i64 %8, ptr %10)
  ret void
}

; Function Attrs: mustprogress nounwind uwtable
define dso_local noundef zeroext i1 @_ZN4Luau4Json11JsonEmitter9pushCommaEv(ptr noundef nonnull align 8 dereferenceable(32) %0) #2 align 2 {
  %2 = alloca ptr, align 8
  %3 = alloca i8, align 1
  store ptr %0, ptr %2, align 8, !tbaa !10
  %4 = load ptr, ptr %2, align 8
  call void @llvm.lifetime.start.p0(i64 1, ptr %3) #16
  %5 = getelementptr inbounds nuw %"struct.Luau::Json::JsonEmitter", ptr %4, i32 0, i32 0
  %6 = load i8, ptr %5, align 8, !tbaa !20, !range !27, !noundef !28
  %7 = trunc i8 %6 to i1
  %8 = zext i1 %7 to i8
  store i8 %8, ptr %3, align 1, !tbaa !29
  %9 = getelementptr inbounds nuw %"struct.Luau::Json::JsonEmitter", ptr %4, i32 0, i32 0
  store i8 0, ptr %9, align 8, !tbaa !20
  %10 = load i8, ptr %3, align 1, !tbaa !29, !range !27, !noundef !28
  %11 = trunc i8 %10 to i1
  call void @llvm.lifetime.end.p0(i64 1, ptr %3) #16
  ret i1 %11
}

; Function Attrs: mustprogress nounwind uwtable
define linkonce_odr dso_local noundef ptr @_ZNK4Luau7NotNullINS_4Json11JsonEmitterEEptEv(ptr noundef nonnull align 8 dereferenceable(8) %0) #2 comdat align 2 {
  %2 = alloca ptr, align 8
  store ptr %0, ptr %2, align 8, !tbaa !17
  %3 = load ptr, ptr %2, align 8
  %4 = getelementptr inbounds nuw %"struct.Luau::NotNull", ptr %3, i32 0, i32 0
  %5 = load ptr, ptr %4, align 8, !tbaa !19
  ret ptr %5
}

; Function Attrs: mustprogress uwtable
define dso_local void @_ZN4Luau4Json13ObjectEmitterC2ENS_7NotNullINS0_11JsonEmitterEEE(ptr noundef nonnull align 8 dereferenceable(10) %0, ptr %1) unnamed_addr #0 align 2 {
  %3 = alloca %"struct.Luau::NotNull", align 8
  %4 = alloca ptr, align 8
  %5 = getelementptr inbounds nuw %"struct.Luau::NotNull", ptr %3, i32 0, i32 0
  store ptr %1, ptr %5, align 8
  store ptr %0, ptr %4, align 8, !tbaa !4
  %6 = load ptr, ptr %4, align 8
  %7 = getelementptr inbounds nuw %"struct.Luau::Json::ObjectEmitter", ptr %6, i32 0, i32 0
  call void @llvm.memcpy.p0.p0.i64(ptr align 8 %7, ptr align 8 %3, i64 8, i1 false), !tbaa.struct !9
  %8 = getelementptr inbounds nuw %"struct.Luau::Json::ObjectEmitter", ptr %6, i32 0, i32 2
  store i8 0, ptr %8, align 1, !tbaa !12
  %9 = call noundef ptr @_ZNK4Luau7NotNullINS_4Json11JsonEmitterEEptEv(ptr noundef nonnull align 8 dereferenceable(8) %3) #16
  %10 = call noundef zeroext i1 @_ZN4Luau4Json11JsonEmitter9pushCommaEv(ptr noundef nonnull align 8 dereferenceable(32) %9)
  %11 = getelementptr inbounds nuw %"struct.Luau::Json::ObjectEmitter", ptr %6, i32 0, i32 1
  %12 = zext i1 %10 to i8
  store i8 %12, ptr %11, align 8, !tbaa !16
  %13 = call noundef ptr @_ZNK4Luau7NotNullINS_4Json11JsonEmitterEEptEv(ptr noundef nonnull align 8 dereferenceable(8) %3) #16
  call void @_ZN4Luau4Json11JsonEmitter8writeRawEc(ptr noundef nonnull align 8 dereferenceable(32) %13, i8 noundef signext 123)
  ret void
}